target datalayout = "e-m:e-p270:32:32-p271:32:32-p272:64:64-i64:64-i128:128-f80:128-n8:16:32:64-S128"
target triple = "x86_64-pc-linux-gnu"

%struct.Branch = type { %struct.Rect, ptr }
%struct.Rect = type { [4 x i32] }
%struct.Node = type { i32, i32, [64 x %struct.Branch] }

; Function Attrs: nounwind uwtable
define internal i32 @RTreeInsert2(ptr noundef %0, ptr noundef %1, ptr noundef %2, ptr noundef %3, ptr noundef %4, i32 noundef %5) #0 {
  %7 = alloca i32, align 4
  %8 = alloca ptr, align 8
  %9 = alloca ptr, align 8
  %10 = alloca ptr, align 8
  %11 = alloca ptr, align 8
  %12 = alloca ptr, align 8
  %13 = alloca i32, align 4
  %14 = alloca %struct.Branch, align 8
  %15 = alloca ptr, align 8
  %16 = alloca i32, align 4
  %17 = alloca %struct.Rect, align 4
  %18 = alloca i32, align 4
  %19 = alloca %struct.Rect, align 4
  %20 = alloca %struct.Rect, align 4
  store ptr %0, ptr %8, align 8, !tbaa !15
  store ptr %1, ptr %9, align 8, !tbaa !32
  store ptr %2, ptr %10, align 8, !tbaa !38
  store ptr %3, ptr %11, align 8, !tbaa !23
  store ptr %4, ptr %12, align 8, !tbaa !39
  store i32 %5, ptr %13, align 4, !tbaa !27
  call void @llvm.lifetime.start.p0(i64 24, ptr %14) #6
  call void @llvm.lifetime.start.p0(i64 8, ptr %15) #6
  store ptr null, ptr %15, align 8, !tbaa !23
  %21 = load ptr, ptr %11, align 8, !tbaa !23
  %22 = getelementptr inbounds nuw %struct.Node, ptr %21, i32 0, i32 1
  %23 = load i32, ptr %22, align 4, !tbaa !24
  %24 = load i32, ptr %13, align 4, !tbaa !27
  %25 = icmp sgt i32 %23, %24
  br i1 %25, label %26, label %98

26:                                               ; preds = %6
  call void @llvm.lifetime.start.p0(i64 4, ptr %16) #6
  %27 = load ptr, ptr %9, align 8, !tbaa !32
  %28 = load ptr, ptr %11, align 8, !tbaa !23
  %29 = call i32 @PickBranch(ptr noundef %27, ptr noundef %28)
  store i32 %29, ptr %16, align 4, !tbaa !27
  %30 = load ptr, ptr %8, align 8, !tbaa !15
  %31 = load ptr, ptr %9, align 8, !tbaa !32
  %32 = load ptr, ptr %10, align 8, !tbaa !38
  %33 = load ptr, ptr %11, align 8, !tbaa !23
  %34 = getelementptr inbounds nuw %struct.Node, ptr %33, i32 0, i32 2
  %35 = load i32, ptr %16, align 4, !tbaa !27
  %36 = sext i32 %35 to i64
  %37 = getelementptr inbounds [64 x %struct.Branch], ptr %34, i64 0, i64 %36
  %38 = getelementptr inbounds nuw %struct.Branch, ptr %37, i32 0, i32 1
  %39 = load ptr, ptr %38, align 8, !tbaa !28
  %40 = load i32, ptr %13, align 4, !tbaa !27
  %41 = call i32 @RTreeInsert2(ptr noundef %30, ptr noundef %31, ptr noundef %32, ptr noundef %39, ptr noundef %15, i32 noundef %40)
  %42 = icmp ne i32 %41, 0
  br i1 %42, label %63, label %43

43:                                               ; preds = %26
  %44 = load ptr, ptr %11, align 8, !tbaa !23
  %45 = getelementptr inbounds nuw %struct.Node, ptr %44, i32 0, i32 2
  %46 = load i32, ptr %16, align 4, !tbaa !27
  %47 = sext i32 %46 to i64
  %48 = getelementptr inbounds [64 x %struct.Branch], ptr %45, i64 0, i64 %47
  %49 = getelementptr inbounds nuw %struct.Branch, ptr %48, i32 0, i32 0
  call void @llvm.lifetime.start.p0(i64 16, ptr %17) #6
  %50 = load ptr, ptr %9, align 8, !tbaa !32
  %51 = load ptr, ptr %11, align 8, !tbaa !23
  %52 = getelementptr inbounds nuw %struct.Node, ptr %51, i32 0, i32 2
  %53 = load i32, ptr %16, align 4, !tbaa !27
  %54 = sext i32 %53 to i64
  %55 = getelementptr inbounds [64 x %struct.Branch], ptr %52, i64 0, i64 %54
  %56 = getelementptr inbounds nuw %struct.Branch, ptr %55, i32 0, i32 0
  %57 = call { i64, i64 } @CombineRect(ptr noundef %50, ptr noundef %56)
  %58 = getelementptr inbounds nuw %struct.Rect, ptr %17, i32 0, i32 0
  %59 = getelementptr inbounds nuw { i64, i64 }, ptr %58, i32 0, i32 0
  %60 = extractvalue { i64, i64 } %57, 0
  store i64 %60, ptr %59, align 4
  %61 = getelementptr inbounds nuw { i64, i64 }, ptr %58, i32 0, i32 1
  %62 = extractvalue { i64, i64 } %57, 1
  store i64 %62, ptr %61, align 4
  call void @llvm.memcpy.p0.p0.i64(ptr align 8 %49, ptr align 4 %17, i64 16, i1 false), !tbaa.struct !42
  call void @llvm.lifetime.end.p0(i64 16, ptr %17) #6
  store i32 0, ptr %7, align 4
  store i32 1, ptr %18, align 4
  br label %97

63:                                               ; preds = %26
  %64 = load ptr, ptr %11, align 8, !tbaa !23
  %65 = getelementptr inbounds nuw %struct.Node, ptr %64, i32 0, i32 2
  %66 = load i32, ptr %16, align 4, !tbaa !27
  %67 = sext i32 %66 to i64
  %68 = getelementptr inbounds [64 x %struct.Branch], ptr %65, i64 0, i64 %67
  %69 = getelementptr inbounds nuw %struct.Branch, ptr %68, i32 0, i32 0
  call void @llvm.lifetime.start.p0(i64 16, ptr %19) #6
  %70 = load ptr, ptr %11, align 8, !tbaa !23
  %71 = getelementptr inbounds nuw %struct.Node, ptr %70, i32 0, i32 2
  %72 = load i32, ptr %16, align 4, !tbaa !27
  %73 = sext i32 %72 to i64
  %74 = getelementptr inbounds [64 x %struct.Branch], ptr %71, i64 0, i64 %73
  %75 = getelementptr inbounds nuw %struct.Branch, ptr %74, i32 0, i32 1
  %76 = load ptr, ptr %75, align 8, !tbaa !28
  %77 = call { i64, i64 } @NodeCover(ptr noundef %76)
  %78 = getelementptr inbounds nuw %struct.Rect, ptr %19, i32 0, i32 0
  %79 = getelementptr inbounds nuw { i64, i64 }, ptr %78, i32 0, i32 0
  %80 = extractvalue { i64, i64 } %77, 0
  store i64 %80, ptr %79, align 4
  %81 = getelementptr inbounds nuw { i64, i64 }, ptr %78, i32 0, i32 1
  %82 = extractvalue { i64, i64 } %77, 1
  store i64 %82, ptr %81, align 4
  call void @llvm.memcpy.p0.p0.i64(ptr align 8 %69, ptr align 4 %19, i64 16, i1 false), !tbaa.struct !42
  call void @llvm.lifetime.end.p0(i64 16, ptr %19) #6
  %83 = load ptr, ptr %15, align 8, !tbaa !23
  %84 = getelementptr inbounds nuw %struct.Branch, ptr %14, i32 0, i32 1
  store ptr %83, ptr %84, align 8, !tbaa !28
  %85 = getelementptr inbounds nuw %struct.Branch, ptr %14, i32 0, i32 0
  call void @llvm.lifetime.start.p0(i64 16, ptr %20) #6
  %86 = load ptr, ptr %15, align 8, !tbaa !23
  %87 = call { i64, i64 } @NodeCover(ptr noundef %86)
  %88 = getelementptr inbounds nuw %struct.Rect, ptr %20, i32 0, i32 0
  %89 = getelementptr inbounds nuw { i64, i64 }, ptr %88, i32 0, i32 0
  %90 = extractvalue { i64, i64 } %87, 0
  store i64 %90, ptr %89, align 4
  %91 = getelementptr inbounds nuw { i64, i64 }, ptr %88, i32 0, i32 1
  %92 = extractvalue { i64, i64 } %87, 1
  store i64 %92, ptr %91, align 4
  call void @llvm.memcpy.p0.p0.i64(ptr align 8 %85, ptr align 4 %20, i64 16, i1 false), !tbaa.struct !42
  call void @llvm.lifetime.end.p0(i64 16, ptr %20) #6
  %93 = load ptr, ptr %8, align 8, !tbaa !15
  %94 = load ptr, ptr %11, align 8, !tbaa !23
  %95 = load ptr, ptr %12, align 8, !tbaa !39
  %96 = call i32 @AddBranch(ptr noundef %93, ptr noundef %14, ptr noundef %94, ptr noundef %95)
  store i32 %96, ptr %7, align 4
  store i32 1, ptr %18, align 4
  br label %97

97:                                               ; preds = %63, %43
  call void @llvm.lifetime.end.p0(i64 4, ptr %16) #6
  br label %114

98:                                               ; preds = %6
  %99 = load ptr, ptr %11, align 8, !tbaa !23
  %100 = getelementptr inbounds nuw %struct.Node, ptr %99, i32 0, i32 1
  %101 = load i32, ptr %100, align 4, !tbaa !24
  %102 = load i32, ptr %13, align 4, !tbaa !27
  %103 = icmp eq i32 %101, %102
  br i1 %103, label %104, label %113

104:                                              ; preds = %98
  %105 = getelementptr inbounds nuw %struct.Branch, ptr %14, i32 0, i32 0
  %106 = load ptr, ptr %9, align 8, !tbaa !32
  call void @llvm.memcpy.p0.p0.i64(ptr align 8 %105, ptr align 4 %106, i64 16, i1 false), !tbaa.struct !42
  %107 = load ptr, ptr %10, align 8, !tbaa !38
  %108 = getelementptr inbounds nuw %struct.Branch, ptr %14, i32 0, i32 1
  store ptr %107, ptr %108, align 8, !tbaa !28
  %109 = load ptr, ptr %8, align 8, !tbaa !15
  %110 = load ptr, ptr %11, align 8, !tbaa !23
  %111 = load ptr, ptr %12, align 8, !tbaa !39
  %112 = call i32 @AddBranch(ptr noundef %109, ptr noundef %14, ptr noundef %110, ptr noundef %111)
  store i32 %112, ptr %7, align 4
  store i32 1, ptr %18, align 4
  br label %114

113:                                              ; preds = %98
  store i32 0, ptr %7, align 4
  store i32 1, ptr %18, align 4
  br label %114

114:                                              ; preds = %113, %104, %97
  call void @llvm.lifetime.end.p0(i64 8, ptr %15) #6
  call void @llvm.lifetime.end.p0(i64 24, ptr %14) #6
  %115 = load i32, ptr %7, align 4
  ret i32 %115
}