; Function Attrs: nounwind uwtable
define internal fastcc i32 @RTreeInsert2(ptr noundef %0, ptr noundef %1, ptr noundef %2, ptr noundef %3, ptr noundef nonnull %4, i32 noundef %5) unnamed_addr #3 {
  %7 = alloca %struct.Branch, align 8
  %8 = alloca ptr, align 8
  call void @llvm.lifetime.start.p0(i64 24, ptr nonnull %7) #8
  call void @llvm.lifetime.start.p0(i64 8, ptr nonnull %8) #8
  store ptr null, ptr %8, align 8, !tbaa !29
  %9 = getelementptr inbounds nuw i8, ptr %3, i64 4
  %10 = load i32, ptr %9, align 4, !tbaa !13
  %11 = icmp sgt i32 %10, %5
  br i1 %11, label %12, label %35

12:                                               ; preds = %6
  %13 = tail call i32 @PickBranch(ptr noundef %1, ptr noundef nonnull %3) #8
  %14 = getelementptr inbounds nuw i8, ptr %3, i64 8
  %15 = sext i32 %13 to i64
  %16 = getelementptr inbounds [64 x %struct.Branch], ptr %14, i64 0, i64 %15
  %17 = getelementptr inbounds nuw i8, ptr %16, i64 16
  %18 = load ptr, ptr %17, align 8, !tbaa !22
  %19 = call fastcc i32 @RTreeInsert2(ptr noundef %0, ptr noundef %1, ptr noundef %2, ptr noundef %18, ptr noundef %8, i32 noundef %5)
  %.not = icmp eq i32 %19, 0
  br i1 %.not, label %20, label %24

20:                                               ; preds = %12
  %21 = call { i64, i64 } @CombineRect(ptr noundef %1, ptr noundef nonnull %16) #8
  %22 = extractvalue { i64, i64 } %21, 0
  %23 = extractvalue { i64, i64 } %21, 1
  store i64 %22, ptr %16, align 8
  %.sroa.44.0..sroa_idx = getelementptr inbounds nuw i8, ptr %16, i64 8
  store i64 %23, ptr %.sroa.44.0..sroa_idx, align 8, !tbaa !30
  br label %40

24:                                               ; preds = %12
  %25 = load ptr, ptr %17, align 8, !tbaa !22
  %26 = call { i64, i64 } @NodeCover(ptr noundef %25) #8
  %27 = extractvalue { i64, i64 } %26, 0
  %28 = extractvalue { i64, i64 } %26, 1
  store i64 %27, ptr %16, align 8
  %.sroa.42.0..sroa_idx = getelementptr inbounds nuw i8, ptr %16, i64 8
  store i64 %28, ptr %.sroa.42.0..sroa_idx, align 8, !tbaa !30
  %29 = load ptr, ptr %8, align 8, !tbaa !29
  %30 = getelementptr inbounds nuw i8, ptr %7, i64 16
  store ptr %29, ptr %30, align 8, !tbaa !22
  %31 = call { i64, i64 } @NodeCover(ptr noundef %29) #8
  %32 = extractvalue { i64, i64 } %31, 0
  %33 = extractvalue { i64, i64 } %31, 1
  store i64 %32, ptr %7, align 8
  %.sroa.4.0..sroa_idx = getelementptr inbounds nuw i8, ptr %7, i64 8
  store i64 %33, ptr %.sroa.4.0..sroa_idx, align 8, !tbaa !30
  %34 = call i32 @AddBranch(ptr noundef %0, ptr noundef nonnull %7, ptr noundef nonnull %3, ptr noundef nonnull %4) #8
  br label %40

35:                                               ; preds = %6
  %36 = icmp eq i32 %10, %5
  br i1 %36, label %37, label %40

37:                                               ; preds = %35
  call void @llvm.memcpy.p0.p0.i64(ptr noundef nonnull align 8 dereferenceable(16) %7, ptr noundef nonnull align 4 dereferenceable(16) %1, i64 16, i1 false), !tbaa.struct !31
  %38 = getelementptr inbounds nuw i8, ptr %7, i64 16
  store ptr %2, ptr %38, align 8, !tbaa !22
  %39 = call i32 @AddBranch(ptr noundef %0, ptr noundef nonnull %7, ptr noundef nonnull %3, ptr noundef nonnull %4) #8
  br label %40

40:                                               ; preds = %35, %20, %24, %37
  %.1 = phi i32 [ %39, %37 ], [ %34, %24 ], [ 0, %20 ], [ 0, %35 ]
  call void @llvm.lifetime.end.p0(i64 8, ptr nonnull %8) #8
  call void @llvm.lifetime.end.p0(i64 24, ptr nonnull %7) #8
  ret i32 %.1
}